<?xml version="1.0" encoding="utf-8"?>
<?xml-stylesheet type="text/xsl" href="pdml2html.xsl"?>
<!-- You can find pdml2html.xsl in /usr/share/wireshark or at https://code.wireshark.org/review/gitweb?p=wireshark.git;a=blob_plain;f=pdml2html.xsl. -->
<pdml version="0" creator="wireshark/3.2.3" time="Tue Jul 28 14:39:57 2020" capture_file="trace-files/trace1.pcap">

<packet>
  <proto name="geninfo" pos="0" showname="General information" size="66">
    <field name="num" pos="0" show="1226" showname="Number" value="4ca" size="66"/>
    <field name="len" pos="0" show="66" showname="Frame Length" value="42" size="66"/>
    <field name="caplen" pos="0" show="66" showname="Captured Length" value="42" size="66"/>
    <field name="timestamp" pos="0" show="Jul 22, 2020 15:07:06.472165000 -03" showname="Captured Time" value="1595441226.472165000" size="66"/>
  </proto>
  <proto name="frame" showname="Frame 1226: 66 bytes on wire (528 bits), 66 bytes captured (528 bits)" size="66" pos="0">
    <field name="frame.encap_type" showname="Encapsulation type: Ethernet (1)" size="0" pos="0" show="1"/>
    <field name="frame.time" showname="Arrival Time: Jul 22, 2020 15:07:06.472165000 -03" size="0" pos="0" show="Jul 22, 2020 15:07:06.472165000 -03"/>
    <field name="frame.offset_shift" showname="Time shift for this packet: 0.000000000 seconds" size="0" pos="0" show="0.000000000"/>
    <field name="frame.time_epoch" showname="Epoch Time: 1595441226.472165000 seconds" size="0" pos="0" show="1595441226.472165000"/>
    <field name="frame.time_delta" showname="Time delta from previous captured frame: 0.000027000 seconds" size="0" pos="0" show="0.000027000"/>
    <field name="frame.time_delta_displayed" showname="Time delta from previous displayed frame: 0.000027000 seconds" size="0" pos="0" show="0.000027000"/>
    <field name="frame.time_relative" showname="Time since reference or first frame: 467.556903000 seconds" size="0" pos="0" show="467.556903000"/>
    <field name="frame.number" showname="Frame Number: 1226" size="0" pos="0" show="1226"/>
    <field name="frame.len" showname="Frame Length: 66 bytes (528 bits)" size="0" pos="0" show="66"/>
    <field name="frame.cap_len" showname="Capture Length: 66 bytes (528 bits)" size="0" pos="0" show="66"/>
    <field name="frame.marked" showname="Frame is marked: False" size="0" pos="0" show="0"/>
    <field name="frame.ignored" showname="Frame is ignored: False" size="0" pos="0" show="0"/>
    <field name="frame.protocols" showname="Protocols in frame: eth:ethertype:ip:tcp" size="0" pos="0" show="eth:ethertype:ip:tcp"/>
  </proto>
  <proto name="eth" showname="Ethernet II, Src: IntelCor_7a:04:86 (64:32:a8:7a:04:86), Dst: HuiZhouG_1c:cc:48 (f8:4f:ad:1c:cc:48)" size="14" pos="0">
    <field name="eth.dst" showname="Destination: HuiZhouG_1c:cc:48 (f8:4f:ad:1c:cc:48)" size="6" pos="0" show="f8:4f:ad:1c:cc:48" value="f84fad1ccc48">
      <field name="eth.dst_resolved" showname="Destination (resolved): HuiZhouG_1c:cc:48" hide="yes" size="6" pos="0" show="HuiZhouG_1c:cc:48" value="f84fad1ccc48"/>
      <field name="eth.dst.oui" showname="Destination OUI: f8:4f:ad (Hui Zhou Gaoshengda T" hide="yes" size="3" pos="0" show="16273325" value="f84fad"/>
      <field name="eth.dst.oui_resolved" showname="Destination OUI (resolved): Hui Zhou Gaoshengda Technology Co.,LTD" hide="yes" size="6" pos="0" show="Hui Zhou Gaoshengda Technology Co.,LTD" value="f84fad1ccc48"/>
      <field name="eth.addr" showname="Address: HuiZhouG_1c:cc:48 (f8:4f:ad:1c:cc:48)" size="6" pos="0" show="f8:4f:ad:1c:cc:48" value="f84fad1ccc48"/>
      <field name="eth.addr_resolved" showname="Address (resolved): HuiZhouG_1c:cc:48" hide="yes" size="6" pos="0" show="HuiZhouG_1c:cc:48" value="f84fad1ccc48"/>
      <field name="eth.addr.oui" showname="Address OUI: f8:4f:ad (Hui Zhou Gaoshengda T" hide="yes" size="3" pos="0" show="16273325" value="f84fad"/>
      <field name="eth.addr.oui_resolved" showname="Address OUI (resolved): Hui Zhou Gaoshengda Technology Co.,LTD" hide="yes" size="6" pos="0" show="Hui Zhou Gaoshengda Technology Co.,LTD" value="f84fad1ccc48"/>
      <field name="eth.dst.lg" showname=".... ..0. .... .... .... .... = LG bit: Globally unique address (factory default)" size="3" pos="0" show="0" value="0" unmaskedvalue="f84fad"/>
      <field name="eth.lg" showname=".... ..0. .... .... .... .... = LG bit: Globally unique address (factory default)" hide="yes" size="3" pos="0" show="0" value="0" unmaskedvalue="f84fad"/>
      <field name="eth.dst.ig" showname=".... ...0 .... .... .... .... = IG bit: Individual address (unicast)" size="3" pos="0" show="0" value="0" unmaskedvalue="f84fad"/>
      <field name="eth.ig" showname=".... ...0 .... .... .... .... = IG bit: Individual address (unicast)" hide="yes" size="3" pos="0" show="0" value="0" unmaskedvalue="f84fad"/>
    </field>
    <field name="eth.src" showname="Source: IntelCor_7a:04:86 (64:32:a8:7a:04:86)" size="6" pos="6" show="64:32:a8:7a:04:86" value="6432a87a0486">
      <field name="eth.src_resolved" showname="Source (resolved): IntelCor_7a:04:86" hide="yes" size="6" pos="6" show="IntelCor_7a:04:86" value="6432a87a0486"/>
      <field name="eth.src.oui" showname="Source OUI: 64:32:a8 (Intel Corporate)" hide="yes" size="3" pos="6" show="6566568" value="6432a8"/>
      <field name="eth.src.oui_resolved" showname="Source OUI (resolved): Intel Corporate" hide="yes" size="6" pos="6" show="Intel Corporate" value="6432a87a0486"/>
      <field name="eth.addr" showname="Address: IntelCor_7a:04:86 (64:32:a8:7a:04:86)" size="6" pos="6" show="64:32:a8:7a:04:86" value="6432a87a0486"/>
      <field name="eth.addr_resolved" showname="Address (resolved): IntelCor_7a:04:86" hide="yes" size="6" pos="6" show="IntelCor_7a:04:86" value="6432a87a0486"/>
      <field name="eth.addr.oui" showname="Address OUI: 64:32:a8 (Intel Corporate)" hide="yes" size="3" pos="6" show="6566568" value="6432a8"/>
      <field name="eth.addr.oui_resolved" showname="Address OUI (resolved): Intel Corporate" hide="yes" size="6" pos="6" show="Intel Corporate" value="6432a87a0486"/>
      <field name="eth.src.lg" showname=".... ..0. .... .... .... .... = LG bit: Globally unique address (factory default)" size="3" pos="6" show="0" value="0" unmaskedvalue="6432a8"/>
      <field name="eth.lg" showname=".... ..0. .... .... .... .... = LG bit: Globally unique address (factory default)" hide="yes" size="3" pos="6" show="0" value="0" unmaskedvalue="6432a8"/>
      <field name="eth.src.ig" showname=".... ...0 .... .... .... .... = IG bit: Individual address (unicast)" size="3" pos="6" show="0" value="0" unmaskedvalue="6432a8"/>
      <field name="eth.ig" showname=".... ...0 .... .... .... .... = IG bit: Individual address (unicast)" hide="yes" size="3" pos="6" show="0" value="0" unmaskedvalue="6432a8"/>
    </field>
    <field name="eth.type" showname="Type: IPv4 (0x0800)" size="2" pos="12" show="0x00000800" value="0800"/>
  </proto>
  <proto name="ip" showname="Internet Protocol Version 4, Src: 192.168.1.7, Dst: 192.168.1.5" size="20" pos="14">
    <field name="ip.version" showname="0100 .... = Version: 4" size="1" pos="14" show="4" value="4" unmaskedvalue="45"/>
    <field name="ip.hdr_len" showname=".... 0101 = Header Length: 20 bytes (5)" size="1" pos="14" show="20" value="45"/>
    <field name="ip.dsfield" showname="Differentiated Services Field: 0x00 (DSCP: CS0, ECN: Not-ECT)" size="1" pos="15" show="0x00000000" value="00">
      <field name="ip.dsfield.dscp" showname="0000 00.. = Differentiated Services Codepoint: Default (0)" size="1" pos="15" show="0" value="0" unmaskedvalue="00"/>
      <field name="ip.dsfield.ecn" showname=".... ..00 = Explicit Congestion Notification: Not ECN-Capable Transport (0)" size="1" pos="15" show="0" value="0" unmaskedvalue="00"/>
    </field>
    <field name="ip.len" showname="Total Length: 52" size="2" pos="16" show="52" value="0034"/>
    <field name="ip.id" showname="Identification: 0x3309 (13065)" size="2" pos="18" show="0x00003309" value="3309"/>
    <field name="ip.flags" showname="Flags: 0x4000, Don&#x27;t fragment" size="2" pos="20" show="0x00004000" value="4000">
      <field name="ip.flags.rb" showname="0... .... .... .... = Reserved bit: Not set" size="2" pos="20" show="0" value="0" unmaskedvalue="4000"/>
      <field name="ip.flags.df" showname=".1.. .... .... .... = Don&#x27;t fragment: Set" size="2" pos="20" show="1" value="1" unmaskedvalue="4000"/>
      <field name="ip.flags.mf" showname="..0. .... .... .... = More fragments: Not set" size="2" pos="20" show="0" value="0" unmaskedvalue="4000"/>
    </field>
    <field name="ip.frag_offset" showname="Fragment offset: 0" size="2" pos="20" show="0" value="4000"/>
    <field name="ip.ttl" showname="Time to live: 64" size="1" pos="22" show="64" value="40"/>
    <field name="ip.proto" showname="Protocol: TCP (6)" size="1" pos="23" show="6" value="06"/>
    <field name="ip.checksum" showname="Header checksum: 0x845e [validation disabled]" size="2" pos="24" show="0x0000845e" value="845e"/>
    <field name="ip.checksum.status" showname="Header checksum status: Unverified" size="0" pos="24" show="2"/>
    <field name="ip.src" showname="Source: 192.168.1.7" size="4" pos="26" show="192.168.1.7" value="c0a80107"/>
    <field name="ip.addr" showname="Source or Destination Address: 192.168.1.7" hide="yes" size="4" pos="26" show="192.168.1.7" value="c0a80107"/>
    <field name="ip.src_host" showname="Source Host: 192.168.1.7" hide="yes" size="4" pos="26" show="192.168.1.7" value="c0a80107"/>
    <field name="ip.host" showname="Source or Destination Host: 192.168.1.7" hide="yes" size="4" pos="26" show="192.168.1.7" value="c0a80107"/>
    <field name="ip.dst" showname="Destination: 192.168.1.5" size="4" pos="30" show="192.168.1.5" value="c0a80105"/>
    <field name="ip.addr" showname="Source or Destination Address: 192.168.1.5" hide="yes" size="4" pos="30" show="192.168.1.5" value="c0a80105"/>
    <field name="ip.dst_host" showname="Destination Host: 192.168.1.5" hide="yes" size="4" pos="30" show="192.168.1.5" value="c0a80105"/>
    <field name="ip.host" showname="Source or Destination Host: 192.168.1.5" hide="yes" size="4" pos="30" show="192.168.1.5" value="c0a80105"/>
  </proto>
  <proto name="tcp" showname="Transmission Control Protocol, Src Port: 60876, Dst Port: 8009, Seq: 10583, Ack: 10569, Len: 0" size="32" pos="34">
    <field name="tcp.srcport" showname="Source Port: 60876" size="2" pos="34" show="60876" value="edcc"/>
    <field name="tcp.dstport" showname="Destination Port: 8009" size="2" pos="36" show="8009" value="1f49"/>
    <field name="tcp.port" showname="Source or Destination Port: 60876" hide="yes" size="2" pos="34" show="60876" value="edcc"/>
    <field name="tcp.port" showname="Source or Destination Port: 8009" hide="yes" size="2" pos="36" show="8009" value="1f49"/>
    <field name="tcp.stream" showname="Stream index: 0" size="0" pos="34" show="0"/>
    <field name="tcp.len" showname="TCP Segment Len: 0" size="1" pos="46" show="0" value="80"/>
    <field name="tcp.seq" showname="Sequence number: 10583    (relative sequence number)" size="4" pos="38" show="10583" value="dd741288"/>
    <field name="tcp.seq_raw" showname="Sequence number (raw): 3715371656" size="4" pos="38" show="3715371656" value="dd741288"/>
    <field name="tcp.nxtseq" showname="Next sequence number: 10583    (relative sequence number)" size="0" pos="34" show="10583"/>
    <field name="tcp.ack" showname="Acknowledgment number: 10569    (relative ack number)" size="4" pos="42" show="10569" value="465c672f"/>
    <field name="tcp.ack_raw" showname="Acknowledgment number (raw): 1180460847" size="4" pos="42" show="1180460847" value="465c672f"/>
    <field name="tcp.hdr_len" showname="1000 .... = Header Length: 32 bytes (8)" size="1" pos="46" show="32" value="80"/>
    <field name="tcp.flags" showname="Flags: 0x010 (ACK)" size="2" pos="46" show="0x00000010" value="10" unmaskedvalue="8010">
      <field name="tcp.flags.res" showname="000. .... .... = Reserved: Not set" size="1" pos="46" show="0" value="0" unmaskedvalue="80"/>
      <field name="tcp.flags.ns" showname="...0 .... .... = Nonce: Not set" size="1" pos="46" show="0" value="0" unmaskedvalue="80"/>
      <field name="tcp.flags.cwr" showname=".... 0... .... = Congestion Window Reduced (CWR): Not set" size="1" pos="47" show="0" value="0" unmaskedvalue="10"/>
      <field name="tcp.flags.ecn" showname=".... .0.. .... = ECN-Echo: Not set" size="1" pos="47" show="0" value="0" unmaskedvalue="10"/>
      <field name="tcp.flags.urg" showname=".... ..0. .... = Urgent: Not set" size="1" pos="47" show="0" value="0" unmaskedvalue="10"/>
      <field name="tcp.flags.ack" showname=".... ...1 .... = Acknowledgment: Set" size="1" pos="47" show="1" value="1" unmaskedvalue="10"/>
      <field name="tcp.flags.push" showname=".... .... 0... = Push: Not set" size="1" pos="47" show="0" value="0" unmaskedvalue="10"/>
      <field name="tcp.flags.reset" showname=".... .... .0.. = Reset: Not set" size="1" pos="47" show="0" value="0" unmaskedvalue="10"/>
      <field name="tcp.flags.syn" showname=".... .... ..0. = Syn: Not set" size="1" pos="47" show="0" value="0" unmaskedvalue="10"/>
      <field name="tcp.flags.fin" showname=".... .... ...0 = Fin: Not set" size="1" pos="47" show="0" value="0" unmaskedvalue="10"/>
      <field name="tcp.flags.str" showname="TCP Flags: \xc2\xb7\xc2\xb7\xc2\xb7\xc2\xb7\xc2\xb7\xc2\xb7\xc2\xb7A\xc2\xb7\xc2\xb7\xc2\xb7\xc2\xb7" size="2" pos="46" show="\xc2\xb7\xc2\xb7\xc2\xb7\xc2\xb7\xc2\xb7\xc2\xb7\xc2\xb7A\xc2\xb7\xc2\xb7\xc2\xb7\xc2\xb7" value="8010"/>
    </field>
    <field name="tcp.window_size_value" showname="Window size value: 501" size="2" pos="48" show="501" value="01f5"/>
    <field name="tcp.window_size" showname="Calculated window size: 501" size="2" pos="48" show="501" value="01f5"/>
    <field name="tcp.window_size_scalefactor" showname="Window size scaling factor: -1 (unknown)" size="2" pos="48" show="-1" value="01f5"/>
    <field name="tcp.checksum" showname="Checksum: 0xea21 [unverified]" size="2" pos="50" show="0x0000ea21" value="ea21"/>
    <field name="tcp.checksum.status" showname="Checksum Status: Unverified" size="0" pos="50" show="2"/>
    <field name="tcp.urgent_pointer" showname="Urgent pointer: 0" size="2" pos="52" show="0" value="0000"/>
    <field name="tcp.options" showname="Options: (12 bytes), No-Operation (NOP), No-Operation (NOP), Timestamps" size="12" pos="54" show="01:01:08:0a:e2:98:16:1b:00:09:63:ee" value="0101080ae298161b000963ee">
      <field name="tcp.options.nop" showname="TCP Option - No-Operation (NOP)" size="1" pos="54" show="01" value="01">
        <field name="tcp.option_kind" showname="Kind: No-Operation (1)" size="1" pos="54" show="1" value="01"/>
      </field>
      <field name="tcp.options.nop" showname="TCP Option - No-Operation (NOP)" size="1" pos="55" show="01" value="01">
        <field name="tcp.option_kind" showname="Kind: No-Operation (1)" size="1" pos="55" show="1" value="01"/>
      </field>
      <field name="tcp.options.timestamp" showname="TCP Option - Timestamps: TSval 3801617947, TSecr 615406" size="10" pos="56" show="08:0a:e2:98:16:1b:00:09:63:ee" value="080ae298161b000963ee">
        <field name="tcp.option_kind" showname="Kind: Time Stamp Option (8)" size="1" pos="56" show="8" value="08"/>
        <field name="tcp.option_len" showname="Length: 10" size="1" pos="57" show="10" value="0a"/>
        <field name="tcp.options.timestamp.tsval" showname="Timestamp value: 3801617947" size="4" pos="58" show="3801617947" value="e298161b"/>
        <field name="tcp.options.timestamp.tsecr" showname="Timestamp echo reply: 615406" size="4" pos="62" show="615406" value="000963ee"/>
      </field>
    </field>
    <field name="tcp.analysis" showname="SEQ/ACK analysis" size="0" pos="34" show="" value="">
      <field name="tcp.analysis.acks_frame" showname="This is an ACK to the segment in frame: 1225" size="0" pos="34" show="1225"/>
      <field name="tcp.analysis.ack_rtt" showname="The RTT to ACK the segment was: 0.000027000 seconds" size="0" pos="34" show="0.000027000"/>
    </field>
    <field name="" show="Timestamps" size="0" pos="34">
      <field name="tcp.time_relative" showname="Time since first frame in this TCP stream: 467.556903000 seconds" size="0" pos="34" show="467.556903000"/>
      <field name="tcp.time_delta" showname="Time since previous frame in this TCP stream: 0.000027000 seconds" size="0" pos="34" show="0.000027000"/>
    </field>
  </proto>
</packet>


</pdml>